; Function Attrs: nounwind uwtable
define internal noundef i32 @H5P__facc_mdc_log_location_close(ptr readnone captures(none) %0, i64 %1, ptr noundef readonly captures(none) %2) #0 {
  %4 = load i8, ptr @H5P_init_g, align 1, !tbaa !16, !range !18, !noundef !19
  %5 = trunc nuw i8 %4 to i1
  %6 = load i8, ptr @H5_libterm_g, align 1, !range !18
  %7 = trunc nuw i8 %6 to i1
  %8 = xor i1 %7, true
  %9 = select i1 %5, i1 true, i1 %8
  br i1 %9, label %10, label %13, !prof !20

10:                                               ; preds = %3
  %11 = load ptr, ptr %2, align 8, !tbaa !48
  %12 = tail call ptr @H5MM_xfree(ptr noundef %11) #15
  br label %13

13:                                               ; preds = %10, %3
  ret i32 0
}